target datalayout = "e-m:e-p270:32:32-p271:32:32-p272:64:64-i64:64-i128:128-f80:128-n8:16:32:64-S128"
target triple = "x86_64-pc-linux-gnu"

%struct.UNewTrie = type { [34848 x i32], ptr, i32, i32, i32, i32, i8, i8, i8, i8, [34849 x i32] }

; Function Attrs: mustprogress nounwind uwtable
define internal noundef i32 @_ZL20utrie_allocDataBlockP8UNewTrie(ptr noundef %0) #6 {
  %2 = alloca i32, align 4
  %3 = alloca ptr, align 8
  %4 = alloca i32, align 4
  %5 = alloca i32, align 4
  %6 = alloca i32, align 4
  store ptr %0, ptr %3, align 8, !tbaa !3
  call void @llvm.lifetime.start.p0(i64 4, ptr %4) #8
  call void @llvm.lifetime.start.p0(i64 4, ptr %5) #8
  %7 = load ptr, ptr %3, align 8, !tbaa !3
  %8 = getelementptr inbounds nuw %struct.UNewTrie, ptr %7, i32 0, i32 5
  %9 = load i32, ptr %8, align 4, !tbaa !19
  store i32 %9, ptr %4, align 4, !tbaa !10
  %10 = load i32, ptr %4, align 4, !tbaa !10
  %11 = add nsw i32 %10, 32
  store i32 %11, ptr %5, align 4, !tbaa !10
  %12 = load i32, ptr %5, align 4, !tbaa !10
  %13 = load ptr, ptr %3, align 8, !tbaa !3
  %14 = getelementptr inbounds nuw %struct.UNewTrie, ptr %13, i32 0, i32 4
  %15 = load i32, ptr %14, align 8, !tbaa !23
  %16 = icmp sgt i32 %12, %15
  br i1 %16, label %17, label %18

17:                                               ; preds = %1
  store i32 -1, ptr %2, align 4
  store i32 1, ptr %6, align 4
  br label %23

18:                                               ; preds = %1
  %19 = load i32, ptr %5, align 4, !tbaa !10
  %20 = load ptr, ptr %3, align 8, !tbaa !3
  %21 = getelementptr inbounds nuw %struct.UNewTrie, ptr %20, i32 0, i32 5
  store i32 %19, ptr %21, align 4, !tbaa !19
  %22 = load i32, ptr %4, align 4, !tbaa !10
  store i32 %22, ptr %2, align 4
  store i32 1, ptr %6, align 4
  br label %23

23:                                               ; preds = %18, %17
  call void @llvm.lifetime.end.p0(i64 4, ptr %5) #8
  call void @llvm.lifetime.end.p0(i64 4, ptr %4) #8
  %24 = load i32, ptr %2, align 4
  ret i32 %24
}

; Function Attrs: mustprogress uwtable
define internal noundef i32 @_ZL18utrie_getDataBlockP8UNewTriei(ptr noundef %0, i32 noundef %1) #0 {
  %3 = alloca i32, align 4
  %4 = alloca ptr, align 8
  %5 = alloca i32, align 4
  %6 = alloca i32, align 4
  %7 = alloca i32, align 4
  %8 = alloca i32, align 4
  store ptr %0, ptr %4, align 8, !tbaa !3
  store i32 %1, ptr %5, align 4, !tbaa !10
  call void @llvm.lifetime.start.p0(i64 4, ptr %6) #8
  call void @llvm.lifetime.start.p0(i64 4, ptr %7) #8
  %9 = load i32, ptr %5, align 4, !tbaa !10
  %10 = ashr i32 %9, 5
  store i32 %10, ptr %5, align 4, !tbaa !10
  %11 = load ptr, ptr %4, align 8, !tbaa !3
  %12 = getelementptr inbounds nuw %struct.UNewTrie, ptr %11, i32 0, i32 0
  %13 = load i32, ptr %5, align 4, !tbaa !10
  %14 = sext i32 %13 to i64
  %15 = getelementptr inbounds [34848 x i32], ptr %12, i64 0, i64 %14
  %16 = load i32, ptr %15, align 4, !tbaa !10
  store i32 %16, ptr %6, align 4, !tbaa !10
  %17 = load i32, ptr %6, align 4, !tbaa !10
  %18 = icmp sgt i32 %17, 0
  br i1 %18, label %19, label %21

19:                                               ; preds = %2
  %20 = load i32, ptr %6, align 4, !tbaa !10
  store i32 %20, ptr %3, align 4
  store i32 1, ptr %8, align 4
  br label %51

21:                                               ; preds = %2
  %22 = load ptr, ptr %4, align 8, !tbaa !3
  %23 = call noundef i32 @_ZL20utrie_allocDataBlockP8UNewTrie(ptr noundef %22)
  store i32 %23, ptr %7, align 4, !tbaa !10
  %24 = load i32, ptr %7, align 4, !tbaa !10
  %25 = icmp slt i32 %24, 0
  br i1 %25, label %26, label %27

26:                                               ; preds = %21
  store i32 -1, ptr %3, align 4
  store i32 1, ptr %8, align 4
  br label %51

27:                                               ; preds = %21
  %28 = load i32, ptr %7, align 4, !tbaa !10
  %29 = load ptr, ptr %4, align 8, !tbaa !3
  %30 = getelementptr inbounds nuw %struct.UNewTrie, ptr %29, i32 0, i32 0
  %31 = load i32, ptr %5, align 4, !tbaa !10
  %32 = sext i32 %31 to i64
  %33 = getelementptr inbounds [34848 x i32], ptr %30, i64 0, i64 %32
  store i32 %28, ptr %33, align 4, !tbaa !10
  br label %34

34:                                               ; preds = %27
  %35 = load ptr, ptr %4, align 8, !tbaa !3
  %36 = getelementptr inbounds nuw %struct.UNewTrie, ptr %35, i32 0, i32 1
  %37 = load ptr, ptr %36, align 8, !tbaa !15
  %38 = load i32, ptr %7, align 4, !tbaa !10
  %39 = sext i32 %38 to i64
  %40 = getelementptr inbounds i32, ptr %37, i64 %39
  %41 = load ptr, ptr %4, align 8, !tbaa !3
  %42 = getelementptr inbounds nuw %struct.UNewTrie, ptr %41, i32 0, i32 1
  %43 = load ptr, ptr %42, align 8, !tbaa !15
  %44 = load i32, ptr %6, align 4, !tbaa !10
  %45 = sext i32 %44 to i64
  %46 = sub i64 0, %45
  %47 = getelementptr inbounds i32, ptr %43, i64 %46
  call void @llvm.memcpy.p0.p0.i64(ptr align 4 %40, ptr align 4 %47, i64 128, i1 false)
  br label %48

48:                                               ; preds = %34
  br label %49

49:                                               ; preds = %48
  %50 = load i32, ptr %7, align 4, !tbaa !10
  store i32 %50, ptr %3, align 4
  store i32 1, ptr %8, align 4
  br label %51

51:                                               ; preds = %49, %26, %19
  call void @llvm.lifetime.end.p0(i64 4, ptr %7) #8
  call void @llvm.lifetime.end.p0(i64 4, ptr %6) #8
  %52 = load i32, ptr %3, align 4
  ret i32 %52
}

; Function Attrs: mustprogress uwtable
define signext i8 @utrie_set32_77(ptr noundef %0, i32 noundef %1, i32 noundef %2) #0 {
  %4 = alloca i8, align 1
  %5 = alloca ptr, align 8
  %6 = alloca i32, align 4
  %7 = alloca i32, align 4
  %8 = alloca i32, align 4
  %9 = alloca i32, align 4
  store ptr %0, ptr %5, align 8, !tbaa !3
  store i32 %1, ptr %6, align 4, !tbaa !10
  store i32 %2, ptr %7, align 4, !tbaa !10
  call void @llvm.lifetime.start.p0(i64 4, ptr %8) #8
  %10 = load ptr, ptr %5, align 8, !tbaa !3
  %11 = icmp eq ptr %10, null
  br i1 %11, label %20, label %12

12:                                               ; preds = %3
  %13 = load ptr, ptr %5, align 8, !tbaa !3
  %14 = getelementptr inbounds nuw %struct.UNewTrie, ptr %13, i32 0, i32 9
  %15 = load i8, ptr %14, align 1, !tbaa !25
  %16 = icmp ne i8 %15, 0
  br i1 %16, label %20, label %17

17:                                               ; preds = %12
  %18 = load i32, ptr %6, align 4, !tbaa !10
  %19 = icmp ugt i32 %18, 1114111
  br i1 %19, label %20, label %21

20:                                               ; preds = %17, %12, %3
  store i8 0, ptr %4, align 1
  store i32 1, ptr %9, align 4
  br label %39

21:                                               ; preds = %17
  %22 = load ptr, ptr %5, align 8, !tbaa !3
  %23 = load i32, ptr %6, align 4, !tbaa !10
  %24 = call noundef i32 @_ZL18utrie_getDataBlockP8UNewTriei(ptr noundef %22, i32 noundef %23)
  store i32 %24, ptr %8, align 4, !tbaa !10
  %25 = load i32, ptr %8, align 4, !tbaa !10
  %26 = icmp slt i32 %25, 0
  br i1 %26, label %27, label %28

27:                                               ; preds = %21
  store i8 0, ptr %4, align 1
  store i32 1, ptr %9, align 4
  br label %39

28:                                               ; preds = %21
  %29 = load i32, ptr %7, align 4, !tbaa !10
  %30 = load ptr, ptr %5, align 8, !tbaa !3
  %31 = getelementptr inbounds nuw %struct.UNewTrie, ptr %30, i32 0, i32 1
  %32 = load ptr, ptr %31, align 8, !tbaa !15
  %33 = load i32, ptr %8, align 4, !tbaa !10
  %34 = load i32, ptr %6, align 4, !tbaa !10
  %35 = and i32 %34, 31
  %36 = add nsw i32 %33, %35
  %37 = sext i32 %36 to i64
  %38 = getelementptr inbounds i32, ptr %32, i64 %37
  store i32 %29, ptr %38, align 4, !tbaa !10
  store i8 1, ptr %4, align 1
  store i32 1, ptr %9, align 4
  br label %39

39:                                               ; preds = %28, %27, %20
  call void @llvm.lifetime.end.p0(i64 4, ptr %8) #8
  %40 = load i8, ptr %4, align 1
  ret i8 %40
}