; Function Attrs: mustprogress nofree norecurse nosync nounwind willreturn memory(readwrite, inaccessiblemem: none) uwtable
define signext range(i8 0, 2) i8 @utrie_set32_77(ptr noundef %0, i32 noundef %1, i32 noundef %2) local_unnamed_addr #7 {
  %4 = icmp eq ptr %0, null
  br i1 %4, label %_ZL18utrie_getDataBlockP8UNewTriei.exit.thread, label %5

5:                                                ; preds = %3
  %6 = getelementptr inbounds nuw i8, ptr %0, i64 139419
  %7 = load i8, ptr %6, align 1, !tbaa !21
  %8 = icmp ne i8 %7, 0
  %9 = icmp ugt i32 %1, 1114111
  %or.cond = or i1 %9, %8
  br i1 %or.cond, label %_ZL18utrie_getDataBlockP8UNewTriei.exit.thread, label %10

10:                                               ; preds = %5
  %11 = lshr i32 %1, 5
  %12 = zext nneg i32 %11 to i64
  %13 = getelementptr inbounds nuw [34848 x i32], ptr %0, i64 0, i64 %12
  %14 = load i32, ptr %13, align 4, !tbaa !12
  %15 = icmp sgt i32 %14, 0
  br i1 %15, label %_ZL18utrie_getDataBlockP8UNewTriei.exit, label %16

16:                                               ; preds = %10
  %17 = getelementptr inbounds nuw i8, ptr %0, i64 139412
  %18 = load i32, ptr %17, align 4, !tbaa !15
  %19 = add nsw i32 %18, 32
  %20 = getelementptr inbounds nuw i8, ptr %0, i64 139408
  %21 = load i32, ptr %20, align 8, !tbaa !19
  %22 = icmp sgt i32 %19, %21
  br i1 %22, label %_ZL18utrie_getDataBlockP8UNewTriei.exit.thread, label %_ZL20utrie_allocDataBlockP8UNewTrie.exit.i

_ZL20utrie_allocDataBlockP8UNewTrie.exit.i:       ; preds = %16
  store i32 %19, ptr %17, align 4, !tbaa !15
  %23 = icmp slt i32 %18, 0
  br i1 %23, label %_ZL18utrie_getDataBlockP8UNewTriei.exit.thread, label %24

24:                                               ; preds = %_ZL20utrie_allocDataBlockP8UNewTrie.exit.i
  store i32 %18, ptr %13, align 4, !tbaa !12
  %25 = getelementptr inbounds nuw i8, ptr %0, i64 139392
  %26 = load ptr, ptr %25, align 8, !tbaa !10
  %27 = zext nneg i32 %18 to i64
  %28 = getelementptr inbounds nuw i32, ptr %26, i64 %27
  %29 = sext i32 %14 to i64
  %30 = sub nsw i64 0, %29
  %31 = getelementptr inbounds nuw i32, ptr %26, i64 %30
  tail call void @llvm.memcpy.p0.p0.i64(ptr noundef nonnull align 4 dereferenceable(128) %28, ptr noundef nonnull align 4 dereferenceable(128) %31, i64 128, i1 false)
  br label %_ZL18utrie_getDataBlockP8UNewTriei.exit

_ZL18utrie_getDataBlockP8UNewTriei.exit:          ; preds = %24, %10
  %.0.i = phi i32 [ %18, %24 ], [ %14, %10 ]
  %32 = getelementptr inbounds nuw i8, ptr %0, i64 139392
  %33 = load ptr, ptr %32, align 8, !tbaa !10
  %34 = and i32 %1, 31
  %35 = add nuw nsw i32 %.0.i, %34
  %36 = zext nneg i32 %35 to i64
  %37 = getelementptr inbounds nuw i32, ptr %33, i64 %36
  store i32 %2, ptr %37, align 4, !tbaa !12
  br label %_ZL18utrie_getDataBlockP8UNewTriei.exit.thread

_ZL18utrie_getDataBlockP8UNewTriei.exit.thread:   ; preds = %16, %_ZL20utrie_allocDataBlockP8UNewTrie.exit.i, %3, %5, %_ZL18utrie_getDataBlockP8UNewTriei.exit
  %.0 = phi i8 [ 1, %_ZL18utrie_getDataBlockP8UNewTriei.exit ], [ 0, %5 ], [ 0, %3 ], [ 0, %_ZL20utrie_allocDataBlockP8UNewTrie.exit.i ], [ 0, %16 ]
  ret i8 %.0
}